; Function Attrs: mustprogress nounwind uwtable
define dso_local void @napi_module_register(ptr noundef %mod) local_unnamed_addr #3 {
entry:
  %call = tail call noalias noundef nonnull dereferenceable(64) ptr @_Znwm(i64 noundef 64) #23
  tail call void @llvm.experimental.noalias.scope.decl(metadata !14)
  store i32 -1, ptr %call, align 8, !alias.scope !14
  %nm_flags.i = getelementptr inbounds i8, ptr %call, i64 4
  %nm_flags1.i = getelementptr inbounds i8, ptr %mod, i64 4
  %0 = load i32, ptr %nm_flags1.i, align 4, !noalias !14
  %or.i = or i32 %0, 8
  store i32 %or.i, ptr %nm_flags.i, align 4, !alias.scope !14
  %nm_dso_handle.i = getelementptr inbounds i8, ptr %call, i64 8
  store ptr null, ptr %nm_dso_handle.i, align 8, !alias.scope !14
  %nm_filename.i = getelementptr inbounds i8, ptr %call, i64 16
  %nm_filename2.i = getelementptr inbounds i8, ptr %mod, i64 8
  %1 = load ptr, ptr %nm_filename2.i, align 8, !noalias !14
  store ptr %1, ptr %nm_filename.i, align 8, !alias.scope !14
  %nm_register_func.i = getelementptr inbounds i8, ptr %call, i64 24
  store ptr null, ptr %nm_register_func.i, align 8, !alias.scope !14
  %nm_context_register_func.i = getelementptr inbounds i8, ptr %call, i64 32
  store ptr @_ZL23napi_module_register_cbN2v85LocalINS_6ObjectEEENS0_INS_5ValueEEENS0_INS_7ContextEEEPv, ptr %nm_context_register_func.i, align 8, !alias.scope !14
  %nm_modname.i = getelementptr inbounds i8, ptr %call, i64 40
  %nm_modname3.i = getelementptr inbounds i8, ptr %mod, i64 24
  %2 = load ptr, ptr %nm_modname3.i, align 8, !noalias !14
  store ptr %2, ptr %nm_modname.i, align 8, !alias.scope !14
  %nm_priv.i = getelementptr inbounds i8, ptr %call, i64 48
  store ptr %mod, ptr %nm_priv.i, align 8, !alias.scope !14
  %nm_link.i = getelementptr inbounds i8, ptr %call, i64 56
  store ptr null, ptr %nm_link.i, align 8, !alias.scope !14
  tail call void @node_module_register(ptr noundef nonnull %call) #21
  ret void
}